
phase6KMP:     file format elf64-x86-64


Disassembly of section .init:

0000000000001000 <_init>:
    1000:	f3 0f 1e fa          	endbr64 
    1004:	48 83 ec 08          	sub    $0x8,%rsp
    1008:	48 8b 05 d9 2f 00 00 	mov    0x2fd9(%rip),%rax        # 3fe8 <__gmon_start__>
    100f:	48 85 c0             	test   %rax,%rax
    1012:	74 02                	je     1016 <_init+0x16>
    1014:	ff d0                	callq  *%rax
    1016:	48 83 c4 08          	add    $0x8,%rsp
    101a:	c3                   	retq   

Disassembly of section .plt:

0000000000001020 <.plt>:
    1020:	ff 35 82 2f 00 00    	pushq  0x2f82(%rip)        # 3fa8 <_GLOBAL_OFFSET_TABLE_+0x8>
    1026:	f2 ff 25 83 2f 00 00 	bnd jmpq *0x2f83(%rip)        # 3fb0 <_GLOBAL_OFFSET_TABLE_+0x10>
    102d:	0f 1f 00             	nopl   (%rax)
    1030:	f3 0f 1e fa          	endbr64 
    1034:	68 00 00 00 00       	pushq  $0x0
    1039:	f2 e9 e1 ff ff ff    	bnd jmpq 1020 <.plt>
    103f:	90                   	nop
    1040:	f3 0f 1e fa          	endbr64 
    1044:	68 01 00 00 00       	pushq  $0x1
    1049:	f2 e9 d1 ff ff ff    	bnd jmpq 1020 <.plt>
    104f:	90                   	nop
    1050:	f3 0f 1e fa          	endbr64 
    1054:	68 02 00 00 00       	pushq  $0x2
    1059:	f2 e9 c1 ff ff ff    	bnd jmpq 1020 <.plt>
    105f:	90                   	nop
    1060:	f3 0f 1e fa          	endbr64 
    1064:	68 03 00 00 00       	pushq  $0x3
    1069:	f2 e9 b1 ff ff ff    	bnd jmpq 1020 <.plt>
    106f:	90                   	nop

Disassembly of section .plt.got:

0000000000001070 <__cxa_finalize@plt>:
    1070:	f3 0f 1e fa          	endbr64 
    1074:	f2 ff 25 7d 2f 00 00 	bnd jmpq *0x2f7d(%rip)        # 3ff8 <__cxa_finalize@GLIBC_2.2.5>
    107b:	0f 1f 44 00 00       	nopl   0x0(%rax,%rax,1)

Disassembly of section .plt.sec:

0000000000001080 <puts@plt>:
    1080:	f3 0f 1e fa          	endbr64 
    1084:	f2 ff 25 2d 2f 00 00 	bnd jmpq *0x2f2d(%rip)        # 3fb8 <puts@GLIBC_2.2.5>
    108b:	0f 1f 44 00 00       	nopl   0x0(%rax,%rax,1)

0000000000001090 <__stack_chk_fail@plt>:
    1090:	f3 0f 1e fa          	endbr64 
    1094:	f2 ff 25 25 2f 00 00 	bnd jmpq *0x2f25(%rip)        # 3fc0 <__stack_chk_fail@GLIBC_2.4>
    109b:	0f 1f 44 00 00       	nopl   0x0(%rax,%rax,1)

00000000000010a0 <__isoc99_scanf@plt>:
    10a0:	f3 0f 1e fa          	endbr64 
    10a4:	f2 ff 25 1d 2f 00 00 	bnd jmpq *0x2f1d(%rip)        # 3fc8 <__isoc99_scanf@GLIBC_2.7>
    10ab:	0f 1f 44 00 00       	nopl   0x0(%rax,%rax,1)

00000000000010b0 <exit@plt>:
    10b0:	f3 0f 1e fa          	endbr64 
    10b4:	f2 ff 25 15 2f 00 00 	bnd jmpq *0x2f15(%rip)        # 3fd0 <exit@GLIBC_2.2.5>
    10bb:	0f 1f 44 00 00       	nopl   0x0(%rax,%rax,1)

Disassembly of section .text:

00000000000010c0 <_start>:
    10c0:	f3 0f 1e fa          	endbr64 
    10c4:	31 ed                	xor    %ebp,%ebp
    10c6:	49 89 d1             	mov    %rdx,%r9
    10c9:	5e                   	pop    %rsi
    10ca:	48 89 e2             	mov    %rsp,%rdx
    10cd:	48 83 e4 f0          	and    $0xfffffffffffffff0,%rsp
    10d1:	50                   	push   %rax
    10d2:	54                   	push   %rsp
    10d3:	4c 8d 05 16 05 00 00 	lea    0x516(%rip),%r8        # 15f0 <__libc_csu_fini>
    10da:	48 8d 0d 9f 04 00 00 	lea    0x49f(%rip),%rcx        # 1580 <__libc_csu_init>
    10e1:	48 8d 3d 36 04 00 00 	lea    0x436(%rip),%rdi        # 151e <main>
    10e8:	ff 15 f2 2e 00 00    	callq  *0x2ef2(%rip)        # 3fe0 <__libc_start_main@GLIBC_2.2.5>
    10ee:	f4                   	hlt    
    10ef:	90                   	nop

00000000000010f0 <deregister_tm_clones>:
    10f0:	48 8d 3d 19 2f 00 00 	lea    0x2f19(%rip),%rdi        # 4010 <__TMC_END__>
    10f7:	48 8d 05 12 2f 00 00 	lea    0x2f12(%rip),%rax        # 4010 <__TMC_END__>
    10fe:	48 39 f8             	cmp    %rdi,%rax
    1101:	74 15                	je     1118 <deregister_tm_clones+0x28>
    1103:	48 8b 05 ce 2e 00 00 	mov    0x2ece(%rip),%rax        # 3fd8 <_ITM_deregisterTMCloneTable>
    110a:	48 85 c0             	test   %rax,%rax
    110d:	74 09                	je     1118 <deregister_tm_clones+0x28>
    110f:	ff e0                	jmpq   *%rax
    1111:	0f 1f 80 00 00 00 00 	nopl   0x0(%rax)
    1118:	c3                   	retq   
    1119:	0f 1f 80 00 00 00 00 	nopl   0x0(%rax)

0000000000001120 <register_tm_clones>:
    1120:	48 8d 3d e9 2e 00 00 	lea    0x2ee9(%rip),%rdi        # 4010 <__TMC_END__>
    1127:	48 8d 35 e2 2e 00 00 	lea    0x2ee2(%rip),%rsi        # 4010 <__TMC_END__>
    112e:	48 29 fe             	sub    %rdi,%rsi
    1131:	48 89 f0             	mov    %rsi,%rax
    1134:	48 c1 ee 3f          	shr    $0x3f,%rsi
    1138:	48 c1 f8 03          	sar    $0x3,%rax
    113c:	48 01 c6             	add    %rax,%rsi
    113f:	48 d1 fe             	sar    %rsi
    1142:	74 14                	je     1158 <register_tm_clones+0x38>
    1144:	48 8b 05 a5 2e 00 00 	mov    0x2ea5(%rip),%rax        # 3ff0 <_ITM_registerTMCloneTable>
    114b:	48 85 c0             	test   %rax,%rax
    114e:	74 08                	je     1158 <register_tm_clones+0x38>
    1150:	ff e0                	jmpq   *%rax
    1152:	66 0f 1f 44 00 00    	nopw   0x0(%rax,%rax,1)
    1158:	c3                   	retq   
    1159:	0f 1f 80 00 00 00 00 	nopl   0x0(%rax)

0000000000001160 <__do_global_dtors_aux>:
    1160:	f3 0f 1e fa          	endbr64 
    1164:	80 3d a5 2e 00 00 00 	cmpb   $0x0,0x2ea5(%rip)        # 4010 <__TMC_END__>
    116b:	75 2b                	jne    1198 <__do_global_dtors_aux+0x38>
    116d:	55                   	push   %rbp
    116e:	48 83 3d 82 2e 00 00 	cmpq   $0x0,0x2e82(%rip)        # 3ff8 <__cxa_finalize@GLIBC_2.2.5>
    1175:	00 
    1176:	48 89 e5             	mov    %rsp,%rbp
    1179:	74 0c                	je     1187 <__do_global_dtors_aux+0x27>
    117b:	48 8b 3d 86 2e 00 00 	mov    0x2e86(%rip),%rdi        # 4008 <__dso_handle>
    1182:	e8 e9 fe ff ff       	callq  1070 <__cxa_finalize@plt>
    1187:	e8 64 ff ff ff       	callq  10f0 <deregister_tm_clones>
    118c:	c6 05 7d 2e 00 00 01 	movb   $0x1,0x2e7d(%rip)        # 4010 <__TMC_END__>
    1193:	5d                   	pop    %rbp
    1194:	c3                   	retq   
    1195:	0f 1f 00             	nopl   (%rax)
    1198:	c3                   	retq   
    1199:	0f 1f 80 00 00 00 00 	nopl   0x0(%rax)

00000000000011a0 <frame_dummy>:
    11a0:	f3 0f 1e fa          	endbr64 
    11a4:	e9 77 ff ff ff       	jmpq   1120 <register_tm_clones>

00000000000011a9 <string_length>:
    11a9:	f3 0f 1e fa          	endbr64 
    11ad:	55                   	push   %rbp
    11ae:	48 89 e5             	mov    %rsp,%rbp
    11b1:	48 89 7d e8          	mov    %rdi,-0x18(%rbp)
    11b5:	48 8b 45 e8          	mov    -0x18(%rbp),%rax
    11b9:	48 89 45 f8          	mov    %rax,-0x8(%rbp)
    11bd:	c7 45 f4 00 00 00 00 	movl   $0x0,-0xc(%rbp)
    11c4:	eb 09                	jmp    11cf <string_length+0x26>
    11c6:	48 83 45 f8 01       	addq   $0x1,-0x8(%rbp)
    11cb:	83 45 f4 01          	addl   $0x1,-0xc(%rbp)
    11cf:	48 8b 45 f8          	mov    -0x8(%rbp),%rax
    11d3:	0f b6 00             	movzbl (%rax),%eax
    11d6:	84 c0                	test   %al,%al
    11d8:	75 ec                	jne    11c6 <string_length+0x1d>
    11da:	8b 45 f4             	mov    -0xc(%rbp),%eax
    11dd:	5d                   	pop    %rbp
    11de:	c3                   	retq   

00000000000011df <explode_bomb>:
    11df:	f3 0f 1e fa          	endbr64 
    11e3:	55                   	push   %rbp
    11e4:	48 89 e5             	mov    %rsp,%rbp
    11e7:	48 8d 3d 1a 0e 00 00 	lea    0xe1a(%rip),%rdi        # 2008 <_IO_stdin_used+0x8>
    11ee:	e8 8d fe ff ff       	callq  1080 <puts@plt>
    11f3:	48 8d 3d 53 0e 00 00 	lea    0xe53(%rip),%rdi        # 204d <_IO_stdin_used+0x4d>
    11fa:	e8 81 fe ff ff       	callq  1080 <puts@plt>
    11ff:	48 8d 3d 64 0e 00 00 	lea    0xe64(%rip),%rdi        # 206a <_IO_stdin_used+0x6a>
    1206:	e8 75 fe ff ff       	callq  1080 <puts@plt>
    120b:	48 8d 3d 75 0e 00 00 	lea    0xe75(%rip),%rdi        # 2087 <_IO_stdin_used+0x87>
    1212:	e8 69 fe ff ff       	callq  1080 <puts@plt>
    1217:	48 8d 3d 86 0e 00 00 	lea    0xe86(%rip),%rdi        # 20a4 <_IO_stdin_used+0xa4>
    121e:	e8 5d fe ff ff       	callq  1080 <puts@plt>
    1223:	48 8d 3d 97 0e 00 00 	lea    0xe97(%rip),%rdi        # 20c1 <_IO_stdin_used+0xc1>
    122a:	e8 51 fe ff ff       	callq  1080 <puts@plt>
    122f:	48 8d 3d a7 0e 00 00 	lea    0xea7(%rip),%rdi        # 20dd <_IO_stdin_used+0xdd>
    1236:	e8 45 fe ff ff       	callq  1080 <puts@plt>
    123b:	48 8d 3d b8 0e 00 00 	lea    0xeb8(%rip),%rdi        # 20fa <_IO_stdin_used+0xfa>
    1242:	e8 39 fe ff ff       	callq  1080 <puts@plt>
    1247:	48 8d 3d c9 0e 00 00 	lea    0xec9(%rip),%rdi        # 2117 <_IO_stdin_used+0x117>
    124e:	e8 2d fe ff ff       	callq  1080 <puts@plt>
    1253:	48 8d 3d da 0e 00 00 	lea    0xeda(%rip),%rdi        # 2134 <_IO_stdin_used+0x134>
    125a:	e8 21 fe ff ff       	callq  1080 <puts@plt>
    125f:	48 8d 3d eb 0e 00 00 	lea    0xeeb(%rip),%rdi        # 2151 <_IO_stdin_used+0x151>
    1266:	e8 15 fe ff ff       	callq  1080 <puts@plt>
    126b:	48 8d 3d fc 0e 00 00 	lea    0xefc(%rip),%rdi        # 216e <_IO_stdin_used+0x16e>
    1272:	e8 09 fe ff ff       	callq  1080 <puts@plt>
    1277:	48 8d 3d 0d 0f 00 00 	lea    0xf0d(%rip),%rdi        # 218b <_IO_stdin_used+0x18b>
    127e:	e8 fd fd ff ff       	callq  1080 <puts@plt>
    1283:	bf 08 00 00 00       	mov    $0x8,%edi
    1288:	e8 23 fe ff ff       	callq  10b0 <exit@plt>

000000000000128d <phase_6>:
    128d:	f3 0f 1e fa          	endbr64 
    1291:	55                   	push   %rbp
    1292:	48 89 e5             	mov    %rsp,%rbp
    1295:	41 57                	push   %r15
    1297:	41 56                	push   %r14
    1299:	41 55                	push   %r13
    129b:	41 54                	push   %r12
    129d:	53                   	push   %rbx
    129e:	48 83 ec 58          	sub    $0x58,%rsp
    12a2:	48 89 7d 88          	mov    %rdi,-0x78(%rbp)
    12a6:	64 48 8b 04 25 28 00 	mov    %fs:0x28,%rax
    12ad:	00 00 
    12af:	48 89 45 c8          	mov    %rax,-0x38(%rbp)
    12b3:	31 c0                	xor    %eax,%eax
    12b5:	48 89 e0             	mov    %rsp,%rax
    12b8:	48 89 c3             	mov    %rax,%rbx
    12bb:	c7 45 9c 07 00 00 00 	movl   $0x7,-0x64(%rbp)
    12c2:	48 b8 36 52 61 6e 64 	movabs $0x5f6d6f646e615236,%rax
    12c9:	6f 6d 5f 
    12cc:	48 89 45 b9          	mov    %rax,-0x47(%rbp)
    12d0:	c7 45 c1 53 74 72 69 	movl   $0x69727453,-0x3f(%rbp)
    12d7:	66 c7 45 c5 6e 67    	movw   $0x676e,-0x3b(%rbp)
    12dd:	c6 45 c7 00          	movb   $0x0,-0x39(%rbp)
    12e1:	48 8b 45 88          	mov    -0x78(%rbp),%rax
    12e5:	48 89 c7             	mov    %rax,%rdi
    12e8:	e8 bc fe ff ff       	callq  11a9 <string_length>
    12ed:	89 45 a0             	mov    %eax,-0x60(%rbp)
    12f0:	48 8d 45 b9          	lea    -0x47(%rbp),%rax
    12f4:	48 89 c7             	mov    %rax,%rdi
    12f7:	e8 ad fe ff ff       	callq  11a9 <string_length>
    12fc:	89 45 a4             	mov    %eax,-0x5c(%rbp)
    12ff:	8b 45 a0             	mov    -0x60(%rbp),%eax
    1302:	3b 45 9c             	cmp    -0x64(%rbp),%eax
    1305:	74 05                	je     130c <phase_6+0x7f>
    1307:	e8 d3 fe ff ff       	callq  11df <explode_bomb>
    130c:	8b 45 a0             	mov    -0x60(%rbp),%eax
    130f:	48 63 d0             	movslq %eax,%rdx
    1312:	48 83 ea 01          	sub    $0x1,%rdx
    1316:	48 89 55 a8          	mov    %rdx,-0x58(%rbp)
    131a:	48 63 d0             	movslq %eax,%rdx
    131d:	49 89 d6             	mov    %rdx,%r14
    1320:	41 bf 00 00 00 00    	mov    $0x0,%r15d
    1326:	48 63 d0             	movslq %eax,%rdx
    1329:	49 89 d4             	mov    %rdx,%r12
    132c:	41 bd 00 00 00 00    	mov    $0x0,%r13d
    1332:	48 98                	cltq   
    1334:	48 8d 14 85 00 00 00 	lea    0x0(,%rax,4),%rdx
    133b:	00 
    133c:	b8 10 00 00 00       	mov    $0x10,%eax
    1341:	48 83 e8 01          	sub    $0x1,%rax
    1345:	48 01 d0             	add    %rdx,%rax
    1348:	be 10 00 00 00       	mov    $0x10,%esi
    134d:	ba 00 00 00 00       	mov    $0x0,%edx
    1352:	48 f7 f6             	div    %rsi
    1355:	48 6b c0 10          	imul   $0x10,%rax,%rax
    1359:	48 89 c2             	mov    %rax,%rdx
    135c:	48 81 e2 00 f0 ff ff 	and    $0xfffffffffffff000,%rdx
    1363:	48 89 e6             	mov    %rsp,%rsi
    1366:	48 29 d6             	sub    %rdx,%rsi
    1369:	48 89 f2             	mov    %rsi,%rdx
    136c:	48 39 d4             	cmp    %rdx,%rsp
    136f:	74 12                	je     1383 <phase_6+0xf6>
    1371:	48 81 ec 00 10 00 00 	sub    $0x1000,%rsp
    1378:	48 83 8c 24 f8 0f 00 	orq    $0x0,0xff8(%rsp)
    137f:	00 00 
    1381:	eb e9                	jmp    136c <phase_6+0xdf>
    1383:	48 89 c2             	mov    %rax,%rdx
    1386:	81 e2 ff 0f 00 00    	and    $0xfff,%edx
    138c:	48 29 d4             	sub    %rdx,%rsp
    138f:	48 89 c2             	mov    %rax,%rdx
    1392:	81 e2 ff 0f 00 00    	and    $0xfff,%edx
    1398:	48 85 d2             	test   %rdx,%rdx
    139b:	74 10                	je     13ad <phase_6+0x120>
    139d:	25 ff 0f 00 00       	and    $0xfff,%eax
    13a2:	48 83 e8 08          	sub    $0x8,%rax
    13a6:	48 01 e0             	add    %rsp,%rax
    13a9:	48 83 08 00          	orq    $0x0,(%rax)
    13ad:	48 89 e0             	mov    %rsp,%rax
    13b0:	48 83 c0 03          	add    $0x3,%rax
    13b4:	48 c1 e8 02          	shr    $0x2,%rax
    13b8:	48 c1 e0 02          	shl    $0x2,%rax
    13bc:	48 89 45 b0          	mov    %rax,-0x50(%rbp)
    13c0:	48 8b 45 b0          	mov    -0x50(%rbp),%rax
    13c4:	c7 00 00 00 00 00    	movl   $0x0,(%rax)
    13ca:	c7 45 98 01 00 00 00 	movl   $0x1,-0x68(%rbp)
    13d1:	c7 45 9c 00 00 00 00 	movl   $0x0,-0x64(%rbp)
    13d8:	eb 6e                	jmp    1448 <phase_6+0x1bb>
    13da:	8b 45 98             	mov    -0x68(%rbp),%eax
    13dd:	48 63 d0             	movslq %eax,%rdx
    13e0:	48 8b 45 88          	mov    -0x78(%rbp),%rax
    13e4:	48 01 d0             	add    %rdx,%rax
    13e7:	0f b6 10             	movzbl (%rax),%edx
    13ea:	8b 45 9c             	mov    -0x64(%rbp),%eax
    13ed:	48 63 c8             	movslq %eax,%rcx
    13f0:	48 8b 45 88          	mov    -0x78(%rbp),%rax
    13f4:	48 01 c8             	add    %rcx,%rax
    13f7:	0f b6 00             	movzbl (%rax),%eax
    13fa:	38 c2                	cmp    %al,%dl
    13fc:	75 1a                	jne    1418 <phase_6+0x18b>
    13fe:	83 45 9c 01          	addl   $0x1,-0x64(%rbp)
    1402:	48 8b 45 b0          	mov    -0x50(%rbp),%rax
    1406:	8b 55 98             	mov    -0x68(%rbp),%edx
    1409:	48 63 d2             	movslq %edx,%rdx
    140c:	8b 4d 9c             	mov    -0x64(%rbp),%ecx
    140f:	89 0c 90             	mov    %ecx,(%rax,%rdx,4)
    1412:	83 45 98 01          	addl   $0x1,-0x68(%rbp)
    1416:	eb 30                	jmp    1448 <phase_6+0x1bb>
    1418:	83 7d 9c 00          	cmpl   $0x0,-0x64(%rbp)
    141c:	74 15                	je     1433 <phase_6+0x1a6>
    141e:	8b 45 9c             	mov    -0x64(%rbp),%eax
    1421:	8d 50 ff             	lea    -0x1(%rax),%edx
    1424:	48 8b 45 b0          	mov    -0x50(%rbp),%rax
    1428:	48 63 d2             	movslq %edx,%rdx
    142b:	8b 04 90             	mov    (%rax,%rdx,4),%eax
    142e:	89 45 9c             	mov    %eax,-0x64(%rbp)
    1431:	eb 15                	jmp    1448 <phase_6+0x1bb>
    1433:	48 8b 45 b0          	mov    -0x50(%rbp),%rax
    1437:	8b 55 98             	mov    -0x68(%rbp),%edx
    143a:	48 63 d2             	movslq %edx,%rdx
    143d:	c7 04 90 00 00 00 00 	movl   $0x0,(%rax,%rdx,4)
    1444:	83 45 98 01          	addl   $0x1,-0x68(%rbp)
    1448:	8b 45 98             	mov    -0x68(%rbp),%eax
    144b:	3b 45 a0             	cmp    -0x60(%rbp),%eax
    144e:	7c 8a                	jl     13da <phase_6+0x14d>
    1450:	c7 45 94 00 00 00 00 	movl   $0x0,-0x6c(%rbp)
    1457:	c7 45 98 02 00 00 00 	movl   $0x2,-0x68(%rbp)
    145e:	e9 84 00 00 00       	jmpq   14e7 <phase_6+0x25a>
    1463:	8b 45 94             	mov    -0x6c(%rbp),%eax
    1466:	48 63 d0             	movslq %eax,%rdx
    1469:	48 8b 45 88          	mov    -0x78(%rbp),%rax
    146d:	48 01 d0             	add    %rdx,%rax
    1470:	0f b6 10             	movzbl (%rax),%edx
    1473:	8b 45 98             	mov    -0x68(%rbp),%eax
    1476:	48 98                	cltq   
    1478:	0f b6 44 05 b9       	movzbl -0x47(%rbp,%rax,1),%eax
    147d:	38 c2                	cmp    %al,%dl
    147f:	75 08                	jne    1489 <phase_6+0x1fc>
    1481:	83 45 94 01          	addl   $0x1,-0x6c(%rbp)
    1485:	83 45 98 01          	addl   $0x1,-0x68(%rbp)
    1489:	8b 45 94             	mov    -0x6c(%rbp),%eax
    148c:	3b 45 a0             	cmp    -0x60(%rbp),%eax
    148f:	75 11                	jne    14a2 <phase_6+0x215>
    1491:	48 8d 3d 0b 0d 00 00 	lea    0xd0b(%rip),%rdi        # 21a3 <_IO_stdin_used+0x1a3>
    1498:	e8 e3 fb ff ff       	callq  1080 <puts@plt>
    149d:	48 89 dc             	mov    %rbx,%rsp
    14a0:	eb 59                	jmp    14fb <phase_6+0x26e>
    14a2:	8b 45 98             	mov    -0x68(%rbp),%eax
    14a5:	3b 45 a4             	cmp    -0x5c(%rbp),%eax
    14a8:	7d 3d                	jge    14e7 <phase_6+0x25a>
    14aa:	8b 45 94             	mov    -0x6c(%rbp),%eax
    14ad:	48 63 d0             	movslq %eax,%rdx
    14b0:	48 8b 45 88          	mov    -0x78(%rbp),%rax
    14b4:	48 01 d0             	add    %rdx,%rax
    14b7:	0f b6 10             	movzbl (%rax),%edx
    14ba:	8b 45 98             	mov    -0x68(%rbp),%eax
    14bd:	48 98                	cltq   
    14bf:	0f b6 44 05 b9       	movzbl -0x47(%rbp,%rax,1),%eax
    14c4:	38 c2                	cmp    %al,%dl
    14c6:	74 1f                	je     14e7 <phase_6+0x25a>
    14c8:	83 7d 94 00          	cmpl   $0x0,-0x6c(%rbp)
    14cc:	74 15                	je     14e3 <phase_6+0x256>
    14ce:	8b 45 94             	mov    -0x6c(%rbp),%eax
    14d1:	8d 50 ff             	lea    -0x1(%rax),%edx
    14d4:	48 8b 45 b0          	mov    -0x50(%rbp),%rax
    14d8:	48 63 d2             	movslq %edx,%rdx
    14db:	8b 04 90             	mov    (%rax,%rdx,4),%eax
    14de:	89 45 94             	mov    %eax,-0x6c(%rbp)
    14e1:	eb 04                	jmp    14e7 <phase_6+0x25a>
    14e3:	83 45 98 01          	addl   $0x1,-0x68(%rbp)
    14e7:	8b 45 98             	mov    -0x68(%rbp),%eax
    14ea:	3b 45 a4             	cmp    -0x5c(%rbp),%eax
    14ed:	0f 8c 70 ff ff ff    	jl     1463 <phase_6+0x1d6>
    14f3:	e8 e7 fc ff ff       	callq  11df <explode_bomb>
    14f8:	48 89 dc             	mov    %rbx,%rsp
    14fb:	48 8b 45 c8          	mov    -0x38(%rbp),%rax
    14ff:	64 48 33 04 25 28 00 	xor    %fs:0x28,%rax
    1506:	00 00 
    1508:	74 05                	je     150f <phase_6+0x282>
    150a:	e8 81 fb ff ff       	callq  1090 <__stack_chk_fail@plt>
    150f:	48 8d 65 d8          	lea    -0x28(%rbp),%rsp
    1513:	5b                   	pop    %rbx
    1514:	41 5c                	pop    %r12
    1516:	41 5d                	pop    %r13
    1518:	41 5e                	pop    %r14
    151a:	41 5f                	pop    %r15
    151c:	5d                   	pop    %rbp
    151d:	c3                   	retq   

000000000000151e <main>:
    151e:	f3 0f 1e fa          	endbr64 
    1522:	55                   	push   %rbp
    1523:	48 89 e5             	mov    %rsp,%rbp
    1526:	48 83 ec 20          	sub    $0x20,%rsp
    152a:	64 48 8b 04 25 28 00 	mov    %fs:0x28,%rax
    1531:	00 00 
    1533:	48 89 45 f8          	mov    %rax,-0x8(%rbp)
    1537:	31 c0                	xor    %eax,%eax
    1539:	48 8d 45 e0          	lea    -0x20(%rbp),%rax
    153d:	48 89 c6             	mov    %rax,%rsi
    1540:	48 8d 3d 6c 0c 00 00 	lea    0xc6c(%rip),%rdi        # 21b3 <_IO_stdin_used+0x1b3>
    1547:	b8 00 00 00 00       	mov    $0x0,%eax
    154c:	e8 4f fb ff ff       	callq  10a0 <__isoc99_scanf@plt>
    1551:	48 8d 45 e0          	lea    -0x20(%rbp),%rax
    1555:	48 89 c7             	mov    %rax,%rdi
    1558:	e8 30 fd ff ff       	callq  128d <phase_6>
    155d:	b8 00 00 00 00       	mov    $0x0,%eax
    1562:	48 8b 55 f8          	mov    -0x8(%rbp),%rdx
    1566:	64 48 33 14 25 28 00 	xor    %fs:0x28,%rdx
    156d:	00 00 
    156f:	74 05                	je     1576 <main+0x58>
    1571:	e8 1a fb ff ff       	callq  1090 <__stack_chk_fail@plt>
    1576:	c9                   	leaveq 
    1577:	c3                   	retq   
    1578:	0f 1f 84 00 00 00 00 	nopl   0x0(%rax,%rax,1)
    157f:	00 

0000000000001580 <__libc_csu_init>:
    1580:	f3 0f 1e fa          	endbr64 
    1584:	41 57                	push   %r15
    1586:	4c 8d 3d 13 28 00 00 	lea    0x2813(%rip),%r15        # 3da0 <__frame_dummy_init_array_entry>
    158d:	41 56                	push   %r14
    158f:	49 89 d6             	mov    %rdx,%r14
    1592:	41 55                	push   %r13
    1594:	49 89 f5             	mov    %rsi,%r13
    1597:	41 54                	push   %r12
    1599:	41 89 fc             	mov    %edi,%r12d
    159c:	55                   	push   %rbp
    159d:	48 8d 2d 04 28 00 00 	lea    0x2804(%rip),%rbp        # 3da8 <__do_global_dtors_aux_fini_array_entry>
    15a4:	53                   	push   %rbx
    15a5:	4c 29 fd             	sub    %r15,%rbp
    15a8:	48 83 ec 08          	sub    $0x8,%rsp
    15ac:	e8 4f fa ff ff       	callq  1000 <_init>
    15b1:	48 c1 fd 03          	sar    $0x3,%rbp
    15b5:	74 1f                	je     15d6 <__libc_csu_init+0x56>
    15b7:	31 db                	xor    %ebx,%ebx
    15b9:	0f 1f 80 00 00 00 00 	nopl   0x0(%rax)
    15c0:	4c 89 f2             	mov    %r14,%rdx
    15c3:	4c 89 ee             	mov    %r13,%rsi
    15c6:	44 89 e7             	mov    %r12d,%edi
    15c9:	41 ff 14 df          	callq  *(%r15,%rbx,8)
    15cd:	48 83 c3 01          	add    $0x1,%rbx
    15d1:	48 39 dd             	cmp    %rbx,%rbp
    15d4:	75 ea                	jne    15c0 <__libc_csu_init+0x40>
    15d6:	48 83 c4 08          	add    $0x8,%rsp
    15da:	5b                   	pop    %rbx
    15db:	5d                   	pop    %rbp
    15dc:	41 5c                	pop    %r12
    15de:	41 5d                	pop    %r13
    15e0:	41 5e                	pop    %r14
    15e2:	41 5f                	pop    %r15
    15e4:	c3                   	retq   
    15e5:	66 66 2e 0f 1f 84 00 	data16 nopw %cs:0x0(%rax,%rax,1)
    15ec:	00 00 00 00 

00000000000015f0 <__libc_csu_fini>:
    15f0:	f3 0f 1e fa          	endbr64 
    15f4:	c3                   	retq   

Disassembly of section .fini:

00000000000015f8 <_fini>:
    15f8:	f3 0f 1e fa          	endbr64 
    15fc:	48 83 ec 08          	sub    $0x8,%rsp
    1600:	48 83 c4 08          	add    $0x8,%rsp
    1604:	c3                   	retq   
